; Function Attrs: mustprogress uwtable
define hidden noundef zeroext i1 @_ZN4cvc58internal6theory2bv24BVSolverBitblastInternal19needsEqualityEngineERNS1_11EeSetupInfoE(ptr noundef nonnull align 8 dereferenceable(56) %this, ptr nocapture nonnull readnone align 8 %esi) unnamed_addr #3 align 2 {
entry:
  %call = tail call noundef nonnull align 8 dereferenceable(392) ptr @_ZNK4cvc58internal6EnvObj7optionsEv(ptr noundef nonnull align 8 dereferenceable(16) %this)
  %bv = getelementptr inbounds i8, ptr %call, i64 232
  %0 = load ptr, ptr %bv, align 8
  %1 = load i32, ptr %0, align 4
  %cmp = icmp ne i32 %1, 1
  ret i1 %cmp
}